target datalayout = "e-m:e-p270:32:32-p271:32:32-p272:64:64-i64:64-i128:128-f80:128-n8:16:32:64-S128"
target triple = "x86_64-pc-linux-gnu"

%struct.ASNGetData = type { i32, i32, %union.anon.0, i8, i8 }
%union.anon.0 = type { %struct.anon.3 }
%struct.anon.3 = type { ptr, i32, i32, i32 }

; Function Attrs: nounwind uwtable
define internal i32 @RsaPssHashOidToMgf1(i32 noundef %0, ptr noundef %1) #0 {
  %3 = alloca i32, align 4
  %4 = alloca ptr, align 8
  %5 = alloca i32, align 4
  store i32 %0, ptr %3, align 4, !tbaa !3
  store ptr %1, ptr %4, align 8, !tbaa !18
  call void @llvm.lifetime.start.p0(i64 4, ptr %5) #9
  store i32 0, ptr %5, align 4, !tbaa !3
  %6 = load i32, ptr %3, align 4, !tbaa !3
  switch i32 %6, label %15 [
    i32 417, label %7
    i32 414, label %9
    i32 415, label %11
    i32 416, label %13
  ]

7:                                                ; preds = %2
  %8 = load ptr, ptr %4, align 8, !tbaa !18
  store i32 4, ptr %8, align 4, !tbaa !3
  br label %16

9:                                                ; preds = %2
  %10 = load ptr, ptr %4, align 8, !tbaa !18
  store i32 1, ptr %10, align 4, !tbaa !3
  br label %16

11:                                               ; preds = %2
  %12 = load ptr, ptr %4, align 8, !tbaa !18
  store i32 2, ptr %12, align 4, !tbaa !3
  br label %16

13:                                               ; preds = %2
  %14 = load ptr, ptr %4, align 8, !tbaa !18
  store i32 3, ptr %14, align 4, !tbaa !3
  br label %16

15:                                               ; preds = %2
  store i32 -140, ptr %5, align 4, !tbaa !3
  br label %16

16:                                               ; preds = %15, %13, %11, %9, %7
  %17 = load i32, ptr %5, align 4, !tbaa !3
  call void @llvm.lifetime.end.p0(i64 4, ptr %5) #9
  ret i32 %17
}

; Function Attrs: nounwind uwtable
define internal i32 @RsaPssHashOidToType(i32 noundef %0, ptr noundef %1) #0 {
  %3 = alloca i32, align 4
  %4 = alloca ptr, align 8
  %5 = alloca i32, align 4
  store i32 %0, ptr %3, align 4, !tbaa !3
  store ptr %1, ptr %4, align 8, !tbaa !64
  call void @llvm.lifetime.start.p0(i64 4, ptr %5) #9
  store i32 0, ptr %5, align 4, !tbaa !3
  %6 = load i32, ptr %3, align 4, !tbaa !3
  switch i32 %6, label %15 [
    i32 417, label %7
    i32 414, label %9
    i32 415, label %11
    i32 416, label %13
  ]

7:                                                ; preds = %2
  %8 = load ptr, ptr %4, align 8, !tbaa !64
  store i32 5, ptr %8, align 4, !tbaa !3
  br label %16

9:                                                ; preds = %2
  %10 = load ptr, ptr %4, align 8, !tbaa !64
  store i32 6, ptr %10, align 4, !tbaa !3
  br label %16

11:                                               ; preds = %2
  %12 = load ptr, ptr %4, align 8, !tbaa !64
  store i32 7, ptr %12, align 4, !tbaa !3
  br label %16

13:                                               ; preds = %2
  %14 = load ptr, ptr %4, align 8, !tbaa !64
  store i32 8, ptr %14, align 4, !tbaa !3
  br label %16

15:                                               ; preds = %2
  store i32 -140, ptr %5, align 4, !tbaa !3
  br label %16

16:                                               ; preds = %15, %13, %11, %9, %7
  %17 = load i32, ptr %5, align 4, !tbaa !3
  call void @llvm.lifetime.end.p0(i64 4, ptr %5) #9
  ret i32 %17
}

; Function Attrs: nounwind uwtable
define internal i32 @DecodeRsaPssParams(ptr noundef %0, i32 noundef %1, ptr noundef %2, ptr noundef %3, ptr noundef %4) #0 {
  %6 = alloca ptr, align 8
  %7 = alloca i32, align 4
  %8 = alloca ptr, align 8
  %9 = alloca ptr, align 8
  %10 = alloca ptr, align 8
  %11 = alloca [15 x %struct.ASNGetData], align 16
  %12 = alloca i32, align 4
  %13 = alloca i16, align 2
  %14 = alloca i32, align 4
  %15 = alloca i32, align 4
  %16 = alloca i32, align 4
  store ptr %0, ptr %6, align 8, !tbaa !7
  store i32 %1, ptr %7, align 4, !tbaa !3
  store ptr %2, ptr %8, align 8, !tbaa !64
  store ptr %3, ptr %9, align 8, !tbaa !18
  store ptr %4, ptr %10, align 8, !tbaa !18
  call void @llvm.lifetime.start.p0(i64 600, ptr %11) #9
  call void @llvm.lifetime.start.p0(i64 4, ptr %12) #9
  store i32 0, ptr %12, align 4, !tbaa !3
  call void @llvm.lifetime.start.p0(i64 2, ptr %13) #9
  store i16 20, ptr %13, align 2, !tbaa !53
  %17 = load ptr, ptr %6, align 8, !tbaa !7
  %18 = icmp eq ptr %17, null
  br i1 %18, label %19, label %20

19:                                               ; preds = %5
  store i32 -173, ptr %12, align 4, !tbaa !3
  br label %20

20:                                               ; preds = %19, %5
  %21 = getelementptr inbounds [15 x %struct.ASNGetData], ptr %11, i64 0, i64 0
  call void @llvm.memset.p0.i64(ptr align 16 %21, i8 0, i64 600, i1 false)
  %22 = load i32, ptr %12, align 4, !tbaa !3
  %23 = icmp eq i32 %22, 0
  br i1 %23, label %24, label %44

24:                                               ; preds = %20
  call void @llvm.lifetime.start.p0(i64 4, ptr %14) #9
  store i32 0, ptr %14, align 4, !tbaa !3
  %25 = load ptr, ptr %8, align 8, !tbaa !64
  store i32 4, ptr %25, align 4, !tbaa !3
  %26 = load ptr, ptr %9, align 8, !tbaa !18
  store i32 26, ptr %26, align 4, !tbaa !3
  %27 = getelementptr inbounds [15 x %struct.ASNGetData], ptr %11, i64 0, i64 3
  %28 = getelementptr inbounds nuw %struct.ASNGetData, ptr %27, i32 0, i32 2
  %29 = getelementptr inbounds nuw %struct.anon.3, ptr %28, i32 0, i32 2
  store i32 0, ptr %29, align 4, !tbaa !10
  %30 = getelementptr inbounds [15 x %struct.ASNGetData], ptr %11, i64 0, i64 9
  %31 = getelementptr inbounds nuw %struct.ASNGetData, ptr %30, i32 0, i32 2
  %32 = getelementptr inbounds nuw %struct.anon.3, ptr %31, i32 0, i32 2
  store i32 0, ptr %32, align 4, !tbaa !10
  br label %33

33:                                               ; preds = %24
  %34 = getelementptr inbounds [15 x %struct.ASNGetData], ptr %11, i64 0, i64 12
  %35 = getelementptr inbounds nuw %struct.ASNGetData, ptr %34, i32 0, i32 3
  store i8 2, ptr %35, align 16, !tbaa !43
  %36 = getelementptr inbounds [15 x %struct.ASNGetData], ptr %11, i64 0, i64 12
  %37 = getelementptr inbounds nuw %struct.ASNGetData, ptr %36, i32 0, i32 2
  store ptr %13, ptr %37, align 8, !tbaa !10
  br label %38

38:                                               ; preds = %33
  br label %39

39:                                               ; preds = %38
  %40 = getelementptr inbounds [15 x %struct.ASNGetData], ptr %11, i64 0, i64 0
  %41 = load ptr, ptr %6, align 8, !tbaa !7
  %42 = load i32, ptr %7, align 4, !tbaa !3
  %43 = call i32 @GetASN_Items(ptr noundef @rsaPssParamsASN, ptr noundef %40, i32 noundef 15, i32 noundef 1, ptr noundef %41, ptr noundef %14, i32 noundef %42)
  store i32 %43, ptr %12, align 4, !tbaa !3
  call void @llvm.lifetime.end.p0(i64 4, ptr %14) #9
  br label %44

44:                                               ; preds = %39, %20
  %45 = load i32, ptr %12, align 4, !tbaa !3
  %46 = icmp eq i32 %45, 0
  br i1 %46, label %47, label %61

47:                                               ; preds = %44
  %48 = getelementptr inbounds [15 x %struct.ASNGetData], ptr %11, i64 0, i64 3
  %49 = getelementptr inbounds nuw %struct.ASNGetData, ptr %48, i32 0, i32 4
  %50 = load i8, ptr %49, align 1, !tbaa !45
  %51 = zext i8 %50 to i32
  %52 = icmp ne i32 %51, 0
  br i1 %52, label %53, label %61

53:                                               ; preds = %47
  call void @llvm.lifetime.start.p0(i64 4, ptr %15) #9
  %54 = getelementptr inbounds [15 x %struct.ASNGetData], ptr %11, i64 0, i64 3
  %55 = getelementptr inbounds nuw %struct.ASNGetData, ptr %54, i32 0, i32 2
  %56 = getelementptr inbounds nuw %struct.anon.3, ptr %55, i32 0, i32 3
  %57 = load i32, ptr %56, align 8, !tbaa !10
  store i32 %57, ptr %15, align 4, !tbaa !3
  %58 = load i32, ptr %15, align 4, !tbaa !3
  %59 = load ptr, ptr %8, align 8, !tbaa !64
  %60 = call i32 @RsaPssHashOidToType(i32 noundef %58, ptr noundef %59)
  store i32 %60, ptr %12, align 4, !tbaa !3
  call void @llvm.lifetime.end.p0(i64 4, ptr %15) #9
  br label %61

61:                                               ; preds = %53, %47, %44
  %62 = load i32, ptr %12, align 4, !tbaa !3
  %63 = icmp eq i32 %62, 0
  br i1 %63, label %64, label %78

64:                                               ; preds = %61
  %65 = getelementptr inbounds [15 x %struct.ASNGetData], ptr %11, i64 0, i64 9
  %66 = getelementptr inbounds nuw %struct.ASNGetData, ptr %65, i32 0, i32 4
  %67 = load i8, ptr %66, align 1, !tbaa !45
  %68 = zext i8 %67 to i32
  %69 = icmp ne i32 %68, 0
  br i1 %69, label %70, label %78

70:                                               ; preds = %64
  call void @llvm.lifetime.start.p0(i64 4, ptr %16) #9
  %71 = getelementptr inbounds [15 x %struct.ASNGetData], ptr %11, i64 0, i64 9
  %72 = getelementptr inbounds nuw %struct.ASNGetData, ptr %71, i32 0, i32 2
  %73 = getelementptr inbounds nuw %struct.anon.3, ptr %72, i32 0, i32 3
  %74 = load i32, ptr %73, align 8, !tbaa !10
  store i32 %74, ptr %16, align 4, !tbaa !3
  %75 = load i32, ptr %16, align 4, !tbaa !3
  %76 = load ptr, ptr %9, align 8, !tbaa !18
  %77 = call i32 @RsaPssHashOidToMgf1(i32 noundef %75, ptr noundef %76)
  store i32 %77, ptr %12, align 4, !tbaa !3
  call void @llvm.lifetime.end.p0(i64 4, ptr %16) #9
  br label %78

78:                                               ; preds = %70, %64, %61
  %79 = load i32, ptr %12, align 4, !tbaa !3
  %80 = icmp eq i32 %79, 0
  br i1 %80, label %81, label %85

81:                                               ; preds = %78
  %82 = load i16, ptr %13, align 2, !tbaa !53
  %83 = zext i16 %82 to i32
  %84 = load ptr, ptr %10, align 8, !tbaa !18
  store i32 %83, ptr %84, align 4, !tbaa !3
  br label %85

85:                                               ; preds = %81, %78
  br label %86

86:                                               ; preds = %85
  br label %87

87:                                               ; preds = %86
  br label %88

88:                                               ; preds = %87
  %89 = load i32, ptr %12, align 4, !tbaa !3
  call void @llvm.lifetime.end.p0(i64 2, ptr %13) #9
  call void @llvm.lifetime.end.p0(i64 4, ptr %12) #9
  call void @llvm.lifetime.end.p0(i64 600, ptr %11) #9
  ret i32 %89
}