; Function Attrs: nounwind uwtable
define internal fastcc range(i32 -192, 1) i32 @DecodeRsaPssParams(ptr noundef %0, i32 noundef %1, ptr noundef nonnull writeonly captures(none) %2, ptr noundef nonnull writeonly captures(none) %3, ptr noundef nonnull writeonly captures(none) %4) unnamed_addr #2 {
  %6 = alloca [15 x %struct.ASNGetData], align 16
  %7 = alloca i16, align 2
  %8 = alloca i32, align 4
  call void @llvm.lifetime.start.p0(i64 600, ptr nonnull %6) #22
  call void @llvm.lifetime.start.p0(i64 2, ptr nonnull %7) #22
  store i16 20, ptr %7, align 2, !tbaa !37
  %.not = icmp eq ptr %0, null
  call void @llvm.memset.p0.i64(ptr noundef nonnull align 16 dereferenceable(600) %6, i8 0, i64 600, i1 false)
  br i1 %.not, label %RsaPssHashOidToMgf1.exit.thread, label %9

9:                                                ; preds = %5
  call void @llvm.lifetime.start.p0(i64 4, ptr nonnull %8) #22
  store i32 0, ptr %8, align 4, !tbaa !22
  store i32 4, ptr %2, align 4, !tbaa !22
  store i32 26, ptr %3, align 4, !tbaa !22
  %10 = getelementptr inbounds nuw i8, ptr %6, i64 140
  store i32 0, ptr %10, align 4, !tbaa !3
  %11 = getelementptr inbounds nuw i8, ptr %6, i64 380
  store i32 0, ptr %11, align 4, !tbaa !3
  %12 = getelementptr inbounds nuw i8, ptr %6, i64 512
  store i8 2, ptr %12, align 16, !tbaa !32
  %13 = getelementptr inbounds nuw i8, ptr %6, i64 488
  store ptr %7, ptr %13, align 8, !tbaa !3
  %14 = call i32 @GetASN_Items(ptr noundef nonnull @rsaPssParamsASN, ptr noundef nonnull %6, i32 noundef 15, i32 noundef 1, ptr noundef nonnull %0, ptr noundef nonnull %8, i32 noundef %1)
  call void @llvm.lifetime.end.p0(i64 4, ptr nonnull %8) #22
  %.phi.trans.insert = getelementptr inbounds nuw i8, ptr %6, i64 153
  %.pre = load i8, ptr %.phi.trans.insert, align 1
  %15 = icmp ne i8 %.pre, 0
  %16 = icmp eq i32 %14, 0
  %or.cond = select i1 %16, i1 %15, i1 false
  br i1 %or.cond, label %17, label %RsaPssHashOidToType.exit

17:                                               ; preds = %9
  %18 = getelementptr inbounds nuw i8, ptr %6, i64 144
  %19 = load i32, ptr %18, align 16, !tbaa !3
  %switch.tableidx = add i32 %19, -414
  %20 = icmp ult i32 %switch.tableidx, 4
  br i1 %20, label %switch.lookup, label %RsaPssHashOidToMgf1.exit.thread

switch.lookup:                                    ; preds = %17
  %21 = zext nneg i32 %switch.tableidx to i64
  %switch.gep = getelementptr inbounds nuw [4 x i32], ptr @switch.table.DecodeRsaPssParams, i64 0, i64 %21
  %switch.load = load i32, ptr %switch.gep, align 4
  store i32 %switch.load, ptr %2, align 4, !tbaa !22
  br label %RsaPssHashOidToType.exit

RsaPssHashOidToType.exit:                         ; preds = %switch.lookup, %9
  %.135 = phi i32 [ 0, %switch.lookup ], [ %14, %9 ]
  %22 = getelementptr inbounds nuw i8, ptr %6, i64 393
  %23 = load i8, ptr %22, align 1
  %24 = icmp ne i8 %23, 0
  %or.cond9 = select i1 %16, i1 %24, i1 false
  br i1 %or.cond9, label %25, label %RsaPssHashOidToMgf1.exit

25:                                               ; preds = %RsaPssHashOidToType.exit
  %26 = getelementptr inbounds nuw i8, ptr %6, i64 384
  %27 = load i32, ptr %26, align 16, !tbaa !3
  %switch.tableidx42 = add i32 %27, -414
  %28 = icmp ult i32 %switch.tableidx42, 4
  br i1 %28, label %switch.lookup41, label %RsaPssHashOidToMgf1.exit.thread

switch.lookup41:                                  ; preds = %25
  %switch.offset = add nsw i32 %27, -413
  store i32 %switch.offset, ptr %3, align 4, !tbaa !22
  br label %29

RsaPssHashOidToMgf1.exit:                         ; preds = %RsaPssHashOidToType.exit
  br i1 %16, label %29, label %RsaPssHashOidToMgf1.exit.thread

29:                                               ; preds = %switch.lookup41, %RsaPssHashOidToMgf1.exit
  %30 = load i16, ptr %7, align 2, !tbaa !37
  %31 = zext i16 %30 to i32
  store i32 %31, ptr %4, align 4, !tbaa !22
  br label %RsaPssHashOidToMgf1.exit.thread

RsaPssHashOidToMgf1.exit.thread:                  ; preds = %25, %17, %5, %RsaPssHashOidToMgf1.exit, %29
  %.329 = phi i32 [ %.135, %RsaPssHashOidToMgf1.exit ], [ 0, %29 ], [ -140, %25 ], [ -140, %17 ], [ -173, %5 ]
  call void @llvm.lifetime.end.p0(i64 2, ptr nonnull %7) #22
  call void @llvm.lifetime.end.p0(i64 600, ptr nonnull %6) #22
  ret i32 %.329
}